target datalayout = "e-m:e-p270:32:32-p271:32:32-p272:64:64-i64:64-i128:128-f80:128-n8:16:32:64-S128"
target triple = "x86_64-pc-linux-gnu"

%struct.H5O_shared_t = type { i32, ptr, i32, %union.anon }
%union.anon = type { %struct.H5O_mesg_loc_t }
%struct.H5O_mesg_loc_t = type { i32, i64 }
%struct.H5O_fill_t = type { %struct.H5O_shared_t, i32, ptr, i64, ptr, i32, i32, i8 }

@.str.3 = private unnamed_addr constant [101 x i8] c"generated/home/dtcxzyw/WorkSpace/Projects/compilers/llvm-opt-benchmark/bench/hdf5/hdf5/src/H5Ofill.c\00", align 1
@__func__.H5O_fill_reset_dyn = private unnamed_addr constant [19 x i8] c"H5O_fill_reset_dyn\00", align 1
@H5E_OHDR_g = external global i64, align 8
@H5E_CANTCREATE_g = external global i64, align 8
@.str.4 = private unnamed_addr constant [30 x i8] c"can't create scalar dataspace\00", align 1
@H5E_BADITER_g = external global i64, align 8
@.str.5 = private unnamed_addr constant [50 x i8] c"unable to reclaim variable-length fill value data\00", align 1

; Function Attrs: nounwind uwtable
define i32 @H5O_fill_reset_dyn(ptr noundef %0) #0 {
  %2 = alloca ptr, align 8
  %3 = alloca i32, align 4
  %4 = alloca i8, align 1
  %5 = alloca ptr, align 8
  store ptr %0, ptr %2, align 8
  store i32 0, ptr %3, align 4
  store i8 0, ptr %4, align 1
  %6 = load ptr, ptr %2, align 8
  %7 = getelementptr inbounds %struct.H5O_fill_t, ptr %6, i32 0, i32 4
  %8 = load ptr, ptr %7, align 8
  %9 = icmp ne ptr %8, null
  br i1 %9, label %10, label %76

10:                                               ; preds = %1
  %11 = load ptr, ptr %2, align 8
  %12 = getelementptr inbounds %struct.H5O_fill_t, ptr %11, i32 0, i32 2
  %13 = load ptr, ptr %12, align 8
  %14 = icmp ne ptr %13, null
  br i1 %14, label %15, label %69

15:                                               ; preds = %10
  %16 = load ptr, ptr %2, align 8
  %17 = getelementptr inbounds %struct.H5O_fill_t, ptr %16, i32 0, i32 2
  %18 = load ptr, ptr %17, align 8
  %19 = call i32 @H5T_detect_class(ptr noundef %18, i32 noundef 9, i1 noundef zeroext false)
  %20 = icmp sgt i32 %19, 0
  br i1 %20, label %21, label %69

21:                                               ; preds = %15
  %22 = call ptr @H5S_create(i32 noundef 0)
  store ptr %22, ptr %5, align 8
  %23 = icmp eq ptr null, %22
  br i1 %23, label %24, label %39

24:                                               ; preds = %21
  br label %25

25:                                               ; preds = %24
  br label %26

26:                                               ; preds = %25
  br label %27

27:                                               ; preds = %26
  %28 = load i64, ptr @H5E_OHDR_g, align 8
  %29 = load i64, ptr @H5E_CANTCREATE_g, align 8
  %30 = call i32 (ptr, ptr, i32, i64, i64, ptr, ...) @H5E_printf_stack(ptr noundef @.str.3, ptr noundef @__func__.H5O_fill_reset_dyn, i32 noundef 722, i64 noundef %28, i64 noundef %29, ptr noundef @.str.4)
  br label %31

31:                                               ; preds = %27
  store i8 1, ptr %4, align 1
  %32 = load i8, ptr %4, align 1
  %33 = trunc i8 %32 to i1
  %34 = zext i1 %33 to i8
  store i8 %34, ptr %4, align 1
  br label %35

35:                                               ; preds = %31
  br label %36

36:                                               ; preds = %35
  store i32 -1, ptr %3, align 4
  br label %91

37:                                               ; No predecessors!
  br label %38

38:                                               ; preds = %37
  br label %39

39:                                               ; preds = %38, %21
  %40 = load ptr, ptr %2, align 8
  %41 = getelementptr inbounds %struct.H5O_fill_t, ptr %40, i32 0, i32 2
  %42 = load ptr, ptr %41, align 8
  %43 = load ptr, ptr %5, align 8
  %44 = load ptr, ptr %2, align 8
  %45 = getelementptr inbounds %struct.H5O_fill_t, ptr %44, i32 0, i32 4
  %46 = load ptr, ptr %45, align 8
  %47 = call i32 @H5T_reclaim(ptr noundef %42, ptr noundef %43, ptr noundef %46)
  %48 = icmp slt i32 %47, 0
  br i1 %48, label %49, label %66

49:                                               ; preds = %39
  %50 = load ptr, ptr %5, align 8
  %51 = call i32 @H5S_close(ptr noundef %50)
  br label %52

52:                                               ; preds = %49
  br label %53

53:                                               ; preds = %52
  br label %54

54:                                               ; preds = %53
  %55 = load i64, ptr @H5E_OHDR_g, align 8
  %56 = load i64, ptr @H5E_BADITER_g, align 8
  %57 = call i32 (ptr, ptr, i32, i64, i64, ptr, ...) @H5E_printf_stack(ptr noundef @.str.3, ptr noundef @__func__.H5O_fill_reset_dyn, i32 noundef 727, i64 noundef %55, i64 noundef %56, ptr noundef @.str.5)
  br label %58

58:                                               ; preds = %54
  store i8 1, ptr %4, align 1
  %59 = load i8, ptr %4, align 1
  %60 = trunc i8 %59 to i1
  %61 = zext i1 %60 to i8
  store i8 %61, ptr %4, align 1
  br label %62

62:                                               ; preds = %58
  br label %63

63:                                               ; preds = %62
  store i32 -1, ptr %3, align 4
  br label %91

64:                                               ; No predecessors!
  br label %65

65:                                               ; preds = %64
  br label %66

66:                                               ; preds = %65, %39
  %67 = load ptr, ptr %5, align 8
  %68 = call i32 @H5S_close(ptr noundef %67)
  br label %69

69:                                               ; preds = %66, %15, %10
  %70 = load ptr, ptr %2, align 8
  %71 = getelementptr inbounds %struct.H5O_fill_t, ptr %70, i32 0, i32 4
  %72 = load ptr, ptr %71, align 8
  %73 = call ptr @H5MM_xfree(ptr noundef %72)
  %74 = load ptr, ptr %2, align 8
  %75 = getelementptr inbounds %struct.H5O_fill_t, ptr %74, i32 0, i32 4
  store ptr %73, ptr %75, align 8
  br label %76

76:                                               ; preds = %69, %1
  %77 = load ptr, ptr %2, align 8
  %78 = getelementptr inbounds %struct.H5O_fill_t, ptr %77, i32 0, i32 3
  store i64 0, ptr %78, align 8
  %79 = load ptr, ptr %2, align 8
  %80 = getelementptr inbounds %struct.H5O_fill_t, ptr %79, i32 0, i32 2
  %81 = load ptr, ptr %80, align 8
  %82 = icmp ne ptr %81, null
  br i1 %82, label %83, label %90

83:                                               ; preds = %76
  %84 = load ptr, ptr %2, align 8
  %85 = getelementptr inbounds %struct.H5O_fill_t, ptr %84, i32 0, i32 2
  %86 = load ptr, ptr %85, align 8
  %87 = call i32 @H5T_close_real(ptr noundef %86)
  %88 = load ptr, ptr %2, align 8
  %89 = getelementptr inbounds %struct.H5O_fill_t, ptr %88, i32 0, i32 2
  store ptr null, ptr %89, align 8
  br label %90

90:                                               ; preds = %83, %76
  br label %91

91:                                               ; preds = %90, %63, %36
  %92 = load i32, ptr %3, align 4
  ret i32 %92
}