; Function Attrs: nounwind uwtable
define range(i32 -1, 1) i32 @H5O_fill_reset_dyn(ptr nocapture noundef %0) local_unnamed_addr #0 {
  %2 = getelementptr inbounds i8, ptr %0, i64 64
  %3 = load ptr, ptr %2, align 8
  %.not = icmp eq ptr %3, null
  br i1 %.not, label %30, label %4

4:                                                ; preds = %1
  %5 = getelementptr inbounds i8, ptr %0, i64 48
  %6 = load ptr, ptr %5, align 8
  %.not19 = icmp eq ptr %6, null
  br i1 %.not19, label %27, label %7

7:                                                ; preds = %4
  %8 = tail call i32 @H5T_detect_class(ptr noundef nonnull %6, i32 noundef 9, i1 noundef zeroext false) #8
  %9 = icmp sgt i32 %8, 0
  br i1 %9, label %10, label %27

10:                                               ; preds = %7
  %11 = tail call ptr @H5S_create(i32 noundef 0) #8
  %12 = icmp eq ptr %11, null
  br i1 %12, label %13, label %17

13:                                               ; preds = %10
  %14 = load i64, ptr @H5E_OHDR_g, align 8
  %15 = load i64, ptr @H5E_CANTCREATE_g, align 8
  %16 = tail call i32 (ptr, ptr, i32, i64, i64, ptr, ...) @H5E_printf_stack(ptr noundef nonnull @.str.3, ptr noundef nonnull @__func__.H5O_fill_reset_dyn, i32 noundef 722, i64 noundef %14, i64 noundef %15, ptr noundef nonnull @.str.4) #8
  br label %36

17:                                               ; preds = %10
  %18 = load ptr, ptr %5, align 8
  %19 = load ptr, ptr %2, align 8
  %20 = tail call i32 @H5T_reclaim(ptr noundef %18, ptr noundef nonnull %11, ptr noundef %19) #8
  %21 = icmp slt i32 %20, 0
  %22 = tail call i32 @H5S_close(ptr noundef nonnull %11) #8
  br i1 %21, label %23, label %27

23:                                               ; preds = %17
  %24 = load i64, ptr @H5E_OHDR_g, align 8
  %25 = load i64, ptr @H5E_BADITER_g, align 8
  %26 = tail call i32 (ptr, ptr, i32, i64, i64, ptr, ...) @H5E_printf_stack(ptr noundef nonnull @.str.3, ptr noundef nonnull @__func__.H5O_fill_reset_dyn, i32 noundef 727, i64 noundef %24, i64 noundef %25, ptr noundef nonnull @.str.5) #8
  br label %36

27:                                               ; preds = %17, %7, %4
  %28 = load ptr, ptr %2, align 8
  %29 = tail call ptr @H5MM_xfree(ptr noundef %28) #8
  store ptr %29, ptr %2, align 8
  br label %30

30:                                               ; preds = %27, %1
  %31 = getelementptr inbounds i8, ptr %0, i64 56
  store i64 0, ptr %31, align 8
  %32 = getelementptr inbounds i8, ptr %0, i64 48
  %33 = load ptr, ptr %32, align 8
  %.not20 = icmp eq ptr %33, null
  br i1 %.not20, label %36, label %34

34:                                               ; preds = %30
  %35 = tail call i32 @H5T_close_real(ptr noundef nonnull %33) #8
  store ptr null, ptr %32, align 8
  br label %36

36:                                               ; preds = %30, %34, %23, %13
  %.0 = phi i32 [ -1, %13 ], [ -1, %23 ], [ 0, %34 ], [ 0, %30 ]
  ret i32 %.0
}